; Function Attrs: mustprogress nounwind uwtable
define void @_ZN18FunnelStringDialogD2Ev(ptr noundef nonnull align 8 dereferenceable(96) %0) unnamed_addr #0 align 2 personality ptr @__gxx_personality_v0 {
  store ptr getelementptr inbounds ({ [59 x ptr], [10 x ptr] }, ptr @_ZTV18FunnelStringDialog, i64 0, i32 0, i64 2), ptr %0, align 8
  %2 = getelementptr inbounds i8, ptr %0, i64 16
  store ptr getelementptr inbounds ({ [59 x ptr], [10 x ptr] }, ptr @_ZTV18FunnelStringDialog, i64 0, i32 1, i64 2), ptr %2, align 8
  %3 = getelementptr inbounds i8, ptr %0, i64 64
  %4 = load ptr, ptr %3, align 8
  %.not = icmp eq ptr %4, null
  br i1 %.not, label %8, label %5

5:                                                ; preds = %1
  %6 = getelementptr inbounds i8, ptr %0, i64 56
  %7 = load ptr, ptr %6, align 8
  invoke void %4(ptr noundef %7)
          to label %8 unwind label %19

8:                                                ; preds = %5, %1
  %9 = getelementptr inbounds i8, ptr %0, i64 40
  %10 = load ptr, ptr %9, align 8
  %11 = icmp eq ptr %10, null
  br i1 %11, label %13, label %12

12:                                               ; preds = %8
  tail call void @_ZdlPv(ptr noundef nonnull %10) #19
  br label %13

13:                                               ; preds = %12, %8
  %14 = getelementptr inbounds i8, ptr %0, i64 72
  %15 = load ptr, ptr %14, align 8
  %.not.i.i.i = icmp eq ptr %15, null
  br i1 %.not.i.i.i, label %_ZN5QListIP9QLineEditED2Ev.exit, label %_ZN17QArrayDataPointerIP9QLineEditE5derefEv.exit.i.i

_ZN17QArrayDataPointerIP9QLineEditE5derefEv.exit.i.i: ; preds = %13
  %16 = atomicrmw sub ptr %15, i32 1 seq_cst, align 4
  %.not.i.i = icmp eq i32 %16, 1
  br i1 %.not.i.i, label %17, label %_ZN5QListIP9QLineEditED2Ev.exit

17:                                               ; preds = %_ZN17QArrayDataPointerIP9QLineEditE5derefEv.exit.i.i
  %18 = load ptr, ptr %14, align 8
  tail call void @_ZN10QArrayData10deallocateEPS_xx(ptr noundef %18, i64 noundef 8, i64 noundef 8) #17
  br label %_ZN5QListIP9QLineEditED2Ev.exit

_ZN5QListIP9QLineEditED2Ev.exit:                  ; preds = %13, %_ZN17QArrayDataPointerIP9QLineEditE5derefEv.exit.i.i, %17
  tail call void @_ZN7QDialogD2Ev(ptr noundef nonnull align 8 dereferenceable(40) %0) #17
  ret void

19:                                               ; preds = %5
  %20 = landingpad { ptr, i32 }
          catch ptr null
  %21 = extractvalue { ptr, i32 } %20, 0
  tail call void @__clang_call_terminate(ptr %21) #20
  unreachable
}